target datalayout = "e-m:e-p270:32:32-p271:32:32-p272:64:64-i64:64-i128:128-f80:128-n8:16:32:64-S128"
target triple = "x86_64-pc-linux-gnu"

; Function Attrs: nounwind uwtable
define void @Scl_LibertyWipeOutComments(ptr noundef %0, ptr noundef %1) #0 {
  %3 = alloca ptr, align 8
  %4 = alloca ptr, align 8
  %5 = alloca ptr, align 8
  %6 = alloca ptr, align 8
  store ptr %0, ptr %3, align 8
  store ptr %1, ptr %4, align 8
  %7 = load ptr, ptr %3, align 8
  store ptr %7, ptr %5, align 8
  br label %8

8:                                                ; preds = %114, %2
  %9 = load ptr, ptr %5, align 8
  %10 = load ptr, ptr %4, align 8
  %11 = getelementptr inbounds i8, ptr %10, i64 -1
  %12 = icmp ult ptr %9, %11
  br i1 %12, label %13, label %117

13:                                               ; preds = %8
  %14 = load ptr, ptr %5, align 8
  %15 = getelementptr inbounds i8, ptr %14, i64 0
  %16 = load i8, ptr %15, align 1
  %17 = sext i8 %16 to i32
  %18 = icmp eq i32 %17, 47
  br i1 %18, label %19, label %67

19:                                               ; preds = %13
  %20 = load ptr, ptr %5, align 8
  %21 = getelementptr inbounds i8, ptr %20, i64 1
  %22 = load i8, ptr %21, align 1
  %23 = sext i8 %22 to i32
  %24 = icmp eq i32 %23, 42
  br i1 %24, label %25, label %67

25:                                               ; preds = %19
  %26 = load ptr, ptr %5, align 8
  store ptr %26, ptr %6, align 8
  br label %27

27:                                               ; preds = %63, %25
  %28 = load ptr, ptr %5, align 8
  %29 = load ptr, ptr %4, align 8
  %30 = getelementptr inbounds i8, ptr %29, i64 -1
  %31 = icmp ult ptr %28, %30
  br i1 %31, label %32, label %66

32:                                               ; preds = %27
  %33 = load ptr, ptr %5, align 8
  %34 = getelementptr inbounds i8, ptr %33, i64 0
  %35 = load i8, ptr %34, align 1
  %36 = sext i8 %35 to i32
  %37 = icmp eq i32 %36, 42
  br i1 %37, label %38, label %62

38:                                               ; preds = %32
  %39 = load ptr, ptr %5, align 8
  %40 = getelementptr inbounds i8, ptr %39, i64 1
  %41 = load i8, ptr %40, align 1
  %42 = sext i8 %41 to i32
  %43 = icmp eq i32 %42, 47
  br i1 %43, label %44, label %62

44:                                               ; preds = %38
  br label %45

45:                                               ; preds = %58, %44
  %46 = load ptr, ptr %6, align 8
  %47 = load ptr, ptr %5, align 8
  %48 = getelementptr inbounds i8, ptr %47, i64 2
  %49 = icmp ult ptr %46, %48
  br i1 %49, label %50, label %61

50:                                               ; preds = %45
  %51 = load ptr, ptr %6, align 8
  %52 = load i8, ptr %51, align 1
  %53 = sext i8 %52 to i32
  %54 = icmp ne i32 %53, 10
  br i1 %54, label %55, label %57

55:                                               ; preds = %50
  %56 = load ptr, ptr %6, align 8
  store i8 32, ptr %56, align 1
  br label %57

57:                                               ; preds = %55, %50
  br label %58

58:                                               ; preds = %57
  %59 = load ptr, ptr %6, align 8
  %60 = getelementptr inbounds i8, ptr %59, i32 1
  store ptr %60, ptr %6, align 8
  br label %45, !llvm.loop !8

61:                                               ; preds = %45
  br label %66

62:                                               ; preds = %38, %32
  br label %63

63:                                               ; preds = %62
  %64 = load ptr, ptr %5, align 8
  %65 = getelementptr inbounds i8, ptr %64, i32 1
  store ptr %65, ptr %5, align 8
  br label %27, !llvm.loop !9

66:                                               ; preds = %61, %27
  br label %113

67:                                               ; preds = %19, %13
  %68 = load ptr, ptr %5, align 8
  %69 = getelementptr inbounds i8, ptr %68, i64 0
  %70 = load i8, ptr %69, align 1
  %71 = sext i8 %70 to i32
  %72 = icmp eq i32 %71, 47
  br i1 %72, label %73, label %112

73:                                               ; preds = %67
  %74 = load ptr, ptr %5, align 8
  %75 = getelementptr inbounds i8, ptr %74, i64 1
  %76 = load i8, ptr %75, align 1
  %77 = sext i8 %76 to i32
  %78 = icmp eq i32 %77, 47
  br i1 %78, label %79, label %112

79:                                               ; preds = %73
  %80 = load ptr, ptr %5, align 8
  store ptr %80, ptr %6, align 8
  br label %81

81:                                               ; preds = %108, %79
  %82 = load ptr, ptr %5, align 8
  %83 = load ptr, ptr %4, align 8
  %84 = icmp ult ptr %82, %83
  br i1 %84, label %85, label %111

85:                                               ; preds = %81
  %86 = load ptr, ptr %5, align 8
  %87 = getelementptr inbounds i8, ptr %86, i64 0
  %88 = load i8, ptr %87, align 1
  %89 = sext i8 %88 to i32
  %90 = icmp eq i32 %89, 10
  br i1 %90, label %96, label %91

91:                                               ; preds = %85
  %92 = load ptr, ptr %5, align 8
  %93 = load ptr, ptr %4, align 8
  %94 = getelementptr inbounds i8, ptr %93, i64 -1
  %95 = icmp eq ptr %92, %94
  br i1 %95, label %96, label %107

96:                                               ; preds = %91, %85
  br label %97

97:                                               ; preds = %103, %96
  %98 = load ptr, ptr %6, align 8
  %99 = load ptr, ptr %5, align 8
  %100 = icmp ult ptr %98, %99
  br i1 %100, label %101, label %106

101:                                              ; preds = %97
  %102 = load ptr, ptr %6, align 8
  store i8 32, ptr %102, align 1
  br label %103

103:                                              ; preds = %101
  %104 = load ptr, ptr %6, align 8
  %105 = getelementptr inbounds i8, ptr %104, i32 1
  store ptr %105, ptr %6, align 8
  br label %97, !llvm.loop !10

106:                                              ; preds = %97
  br label %111

107:                                              ; preds = %91
  br label %108

108:                                              ; preds = %107
  %109 = load ptr, ptr %5, align 8
  %110 = getelementptr inbounds i8, ptr %109, i32 1
  store ptr %110, ptr %5, align 8
  br label %81, !llvm.loop !11

111:                                              ; preds = %106, %81
  br label %112

112:                                              ; preds = %111, %73, %67
  br label %113

113:                                              ; preds = %112, %66
  br label %114

114:                                              ; preds = %113
  %115 = load ptr, ptr %5, align 8
  %116 = getelementptr inbounds i8, ptr %115, i32 1
  store ptr %116, ptr %5, align 8
  br label %8, !llvm.loop !12

117:                                              ; preds = %8
  ret void
}