; Function Attrs: nofree norecurse nosync nounwind memory(argmem: readwrite) uwtable
define void @Scl_LibertyWipeOutComments(ptr noundef %0, ptr noundef readnone %1) local_unnamed_addr #3 {
  %3 = ptrtoint ptr %1 to i64
  %4 = getelementptr inbounds i8, ptr %1, i64 -1
  %5 = icmp ult ptr %0, %4
  br i1 %5, label %.lr.ph50, label %._crit_edge

.lr.ph50:                                         ; preds = %2, %.loopexit
  %.03049 = phi ptr [ %39, %.loopexit ], [ %0, %2 ]
  %.0304958 = ptrtoint ptr %.03049 to i64
  %6 = load i8, ptr %.03049, align 1
  %7 = icmp eq i8 %6, 47
  br i1 %7, label %8, label %.loopexit

8:                                                ; preds = %.lr.ph50
  %9 = getelementptr inbounds nuw i8, ptr %.03049, i64 1
  %10 = load i8, ptr %9, align 1
  %11 = icmp eq i8 %10, 42
  br i1 %11, label %.preheader33, label %29

.preheader33:                                     ; preds = %8
  %12 = icmp ult ptr %.03049, %4
  br i1 %12, label %.lr.ph45.preheader, label %.loopexit

.lr.ph45.preheader:                               ; preds = %.preheader33
  %13 = getelementptr i8, ptr %.03049, i64 %3
  %scevgep61 = getelementptr i8, ptr %13, i64 -1
  %14 = sub i64 0, %.0304958
  %scevgep62 = getelementptr i8, ptr %scevgep61, i64 %14
  %scevgep64 = getelementptr i8, ptr %.03049, i64 2
  br label %.lr.ph45

.lr.ph45:                                         ; preds = %.lr.ph45.preheader, %27
  %indvars.iv = phi ptr [ %scevgep64, %.lr.ph45.preheader ], [ %scevgep65, %27 ]
  %.13144 = phi ptr [ %.03049, %.lr.ph45.preheader ], [ %28, %27 ]
  %15 = load i8, ptr %.13144, align 1
  %16 = icmp eq i8 %15, 42
  br i1 %16, label %17, label %27

17:                                               ; preds = %.lr.ph45
  %18 = getelementptr inbounds nuw i8, ptr %.13144, i64 1
  %19 = load i8, ptr %18, align 1
  %20 = icmp eq i8 %19, 47
  br i1 %20, label %.preheader, label %27

.preheader:                                       ; preds = %17
  %21 = getelementptr inbounds nuw i8, ptr %.13144, i64 2
  %22 = icmp ult ptr %.03049, %21
  br i1 %22, label %.lr.ph48, label %.loopexit

.lr.ph48:                                         ; preds = %.preheader, %25
  %.047 = phi ptr [ %26, %25 ], [ %.03049, %.preheader ]
  %23 = load i8, ptr %.047, align 1
  %.not = icmp eq i8 %23, 10
  br i1 %.not, label %25, label %24

24:                                               ; preds = %.lr.ph48
  store i8 32, ptr %.047, align 1
  br label %25

25:                                               ; preds = %.lr.ph48, %24
  %26 = getelementptr inbounds nuw i8, ptr %.047, i64 1
  %exitcond67.not = icmp eq ptr %26, %indvars.iv
  br i1 %exitcond67.not, label %.loopexit, label %.lr.ph48, !llvm.loop !8

27:                                               ; preds = %.lr.ph45, %17
  %28 = getelementptr inbounds nuw i8, ptr %.13144, i64 1
  %exitcond63.not = icmp eq ptr %28, %scevgep62
  %scevgep65 = getelementptr i8, ptr %indvars.iv, i64 1
  br i1 %exitcond63.not, label %.loopexit, label %.lr.ph45, !llvm.loop !9

29:                                               ; preds = %8
  %30 = icmp eq i8 %10, 47
  %31 = icmp ult ptr %.03049, %1
  %or.cond51 = and i1 %30, %31
  br i1 %or.cond51, label %.lr.ph.preheader, label %.loopexit

.lr.ph.preheader:                                 ; preds = %29
  %scevgep = getelementptr i8, ptr %.03049, i64 %3
  %32 = sub i64 0, %.0304958
  %scevgep59 = getelementptr i8, ptr %scevgep, i64 %32
  br label %.lr.ph

.lr.ph:                                           ; preds = %.lr.ph.preheader, %37
  %indvar = phi i64 [ 0, %.lr.ph.preheader ], [ %indvar.next, %37 ]
  %.241 = phi ptr [ %.03049, %.lr.ph.preheader ], [ %38, %37 ]
  %33 = load i8, ptr %.241, align 1
  %34 = icmp eq i8 %33, 10
  %35 = icmp eq ptr %.241, %4
  %or.cond = or i1 %35, %34
  br i1 %or.cond, label %.preheader35, label %37

.preheader35:                                     ; preds = %.lr.ph
  %36 = icmp ult ptr %.03049, %.241
  br i1 %36, label %.lr.ph43.preheader, label %.loopexit

.lr.ph43.preheader:                               ; preds = %.preheader35
  tail call void @llvm.memset.p0.i64(ptr nonnull align 1 %.03049, i8 32, i64 %indvar, i1 false)
  br label %.loopexit

37:                                               ; preds = %.lr.ph
  %38 = getelementptr inbounds nuw i8, ptr %.241, i64 1
  %exitcond.not = icmp eq ptr %38, %scevgep59
  %indvar.next = add i64 %indvar, 1
  br i1 %exitcond.not, label %.loopexit, label %.lr.ph, !llvm.loop !10

.loopexit:                                        ; preds = %37, %27, %25, %.lr.ph43.preheader, %.preheader35, %.preheader33, %.preheader, %.lr.ph50, %29
  %.3 = phi ptr [ %.03049, %29 ], [ %.03049, %.lr.ph50 ], [ %.13144, %.preheader ], [ %.03049, %.preheader33 ], [ %.241, %.preheader35 ], [ %.241, %.lr.ph43.preheader ], [ %.13144, %25 ], [ %scevgep62, %27 ], [ %scevgep59, %37 ]
  %39 = getelementptr inbounds nuw i8, ptr %.3, i64 1
  %40 = icmp ult ptr %39, %4
  br i1 %40, label %.lr.ph50, label %._crit_edge, !llvm.loop !11

._crit_edge:                                      ; preds = %.loopexit, %2
  ret void
}